; ModuleID = '13/1918.c'
source_filename = "13/1918.c"
target datalayout = "e-m:e-p270:32:32-p271:32:32-p272:64:64-i64:64-f80:128-n8:16:32:64-S128"
target triple = "x86_64-pc-linux-gnu"

@.str = private unnamed_addr constant [3 x i8] c"%d\00", align 1
@.str.1 = private unnamed_addr constant [4 x i8] c" %d\00", align 1

; Function Attrs: noinline nounwind uwtable
define dso_local i32 @main() #0 {
  %1 = alloca i32, align 4
  %2 = alloca i32, align 4
  %3 = alloca [20001 x i32], align 16
  %4 = alloca i32, align 4
  %5 = alloca i32, align 4
  %6 = alloca i32, align 4
  %7 = alloca i32, align 4
  store i32 0, i32* %1, align 4
  store i32 0, i32* %7, align 4
  %8 = call i32 (i8*, ...) @__isoc99_scanf(i8* getelementptr inbounds ([3 x i8], [3 x i8]* @.str, i64 0, i64 0), i32* %2)
  %9 = load i32, i32* %2, align 4
  %10 = icmp sge i32 %9, 1
  br i1 %10, label %11, label %87

11:                                               ; preds = %0
  %12 = load i32, i32* %2, align 4
  %13 = icmp sle i32 %12, 20000
  br i1 %13, label %14, label %87

14:                                               ; preds = %11
  store i32 0, i32* %4, align 4
  br label %15

15:                                               ; preds = %42, %14
  %16 = load i32, i32* %4, align 4
  %17 = load i32, i32* %2, align 4
  %18 = icmp slt i32 %16, %17
  br i1 %18, label %19, label %45

19:                                               ; preds = %15
  %20 = load i32, i32* %4, align 4
  %21 = sext i32 %20 to i64
  %22 = getelementptr inbounds [20001 x i32], [20001 x i32]* %3, i64 0, i64 %21
  %23 = call i32 (i8*, ...) @__isoc99_scanf(i8* getelementptr inbounds ([3 x i8], [3 x i8]* @.str, i64 0, i64 0), i32* %22)
  %24 = load i32, i32* %4, align 4
  %25 = sext i32 %24 to i64
  %26 = getelementptr inbounds [20001 x i32], [20001 x i32]* %3, i64 0, i64 %25
  %27 = load i32, i32* %26, align 4
  %28 = icmp slt i32 %27, 10
  br i1 %28, label %35, label %29

29:                                               ; preds = %19
  %30 = load i32, i32* %4, align 4
  %31 = sext i32 %30 to i64
  %32 = getelementptr inbounds [20001 x i32], [20001 x i32]* %3, i64 0, i64 %31
  %33 = load i32, i32* %32, align 4
  %34 = icmp sge i32 %33, 100
  br i1 %34, label %35, label %40

35:                                               ; preds = %29, %19
  %36 = load i32, i32* %4, align 4
  %37 = sext i32 %36 to i64
  %38 = getelementptr inbounds [20001 x i32], [20001 x i32]* %3, i64 0, i64 %37
  %39 = call i32 (i8*, ...) @__isoc99_scanf(i8* getelementptr inbounds ([3 x i8], [3 x i8]* @.str, i64 0, i64 0), i32* %38)
  br label %41

40:                                               ; preds = %29
  br label %42

41:                                               ; preds = %35
  br label %42

42:                                               ; preds = %41, %40
  %43 = load i32, i32* %4, align 4
  %44 = add nsw i32 %43, 1
  store i32 %44, i32* %4, align 4
  br label %15

45:                                               ; preds = %15
  %46 = getelementptr inbounds [20001 x i32], [20001 x i32]* %3, i64 0, i64 0
  %47 = load i32, i32* %46, align 16
  %48 = call i32 (i8*, ...) @printf(i8* getelementptr inbounds ([3 x i8], [3 x i8]* @.str, i64 0, i64 0), i32 %47)
  store i32 1, i32* %5, align 4
  br label %49

49:                                               ; preds = %83, %45
  %50 = load i32, i32* %5, align 4
  %51 = load i32, i32* %2, align 4
  %52 = icmp slt i32 %50, %51
  br i1 %52, label %53, label %86

53:                                               ; preds = %49
  store i32 0, i32* %6, align 4
  br label %54

54:                                               ; preds = %70, %53
  %55 = load i32, i32* %6, align 4
  %56 = load i32, i32* %5, align 4
  %57 = icmp slt i32 %55, %56
  br i1 %57, label %58, label %73

58:                                               ; preds = %54
  %59 = load i32, i32* %5, align 4
  %60 = sext i32 %59 to i64
  %61 = getelementptr inbounds [20001 x i32], [20001 x i32]* %3, i64 0, i64 %60
  %62 = load i32, i32* %61, align 4
  %63 = load i32, i32* %6, align 4
  %64 = sext i32 %63 to i64
  %65 = getelementptr inbounds [20001 x i32], [20001 x i32]* %3, i64 0, i64 %64
  %66 = load i32, i32* %65, align 4
  %67 = icmp eq i32 %62, %66
  br i1 %67, label %68, label %69

68:                                               ; preds = %58
  store i32 1, i32* %7, align 4
  br label %73

69:                                               ; preds = %58
  br label %70

70:                                               ; preds = %69
  %71 = load i32, i32* %6, align 4
  %72 = add nsw i32 %71, 1
  store i32 %72, i32* %6, align 4
  br label %54

73:                                               ; preds = %68, %54
  %74 = load i32, i32* %7, align 4
  %75 = icmp eq i32 %74, 0
  br i1 %75, label %76, label %82

76:                                               ; preds = %73
  %77 = load i32, i32* %5, align 4
  %78 = sext i32 %77 to i64
  %79 = getelementptr inbounds [20001 x i32], [20001 x i32]* %3, i64 0, i64 %78
  %80 = load i32, i32* %79, align 4
  %81 = call i32 (i8*, ...) @printf(i8* getelementptr inbounds ([4 x i8], [4 x i8]* @.str.1, i64 0, i64 0), i32 %80)
  br label %82

82:                                               ; preds = %76, %73
  store i32 0, i32* %7, align 4
  br label %83

83:                                               ; preds = %82
  %84 = load i32, i32* %5, align 4
  %85 = add nsw i32 %84, 1
  store i32 %85, i32* %5, align 4
  br label %49

86:                                               ; preds = %49
  br label %87

87:                                               ; preds = %86, %11, %0
  ret i32 0
}

declare dso_local i32 @__isoc99_scanf(i8*, ...) #1

declare dso_local i32 @printf(i8*, ...) #1


!llvm.module.flags = !{!0}
!llvm.ident = !{!1}

!0 = !{i32 1, !"wchar_size", i32 4}
!1 = !{!"clang version 10.0.0-4ubuntu1 "}
